target datalayout = "e-m:e-p270:32:32-p271:32:32-p272:64:64-i64:64-i128:128-f80:128-n8:16:32:64-S128"
target triple = "x86_64-pc-linux-gnu"

; Function Attrs: nounwind uwtable
define dso_local i64 @GetIncrementalHeaderSize(i32 noundef %0) #0 {
  %2 = alloca i32, align 4
  %3 = alloca i64, align 8
  store i32 %0, ptr %2, align 4
  call void @llvm.lifetime.start.p0(i64 8, ptr %3) #12
  %4 = load i32, ptr %2, align 4
  %5 = zext i32 %4 to i64
  %6 = mul i64 4, %5
  %7 = add i64 12, %6
  store i64 %7, ptr %3, align 8
  %8 = load i32, ptr %2, align 4
  %9 = icmp ugt i32 %8, 0
  br i1 %9, label %10, label %20

10:                                               ; preds = %1
  %11 = load i64, ptr %3, align 8
  %12 = urem i64 %11, 8192
  %13 = icmp ne i64 %12, 0
  br i1 %13, label %14, label %20

14:                                               ; preds = %10
  %15 = load i64, ptr %3, align 8
  %16 = urem i64 %15, 8192
  %17 = sub i64 8192, %16
  %18 = load i64, ptr %3, align 8
  %19 = add i64 %18, %17
  store i64 %19, ptr %3, align 8
  br label %20

20:                                               ; preds = %14, %10, %1
  %21 = load i64, ptr %3, align 8
  call void @llvm.lifetime.end.p0(i64 8, ptr %3) #12
  ret i64 %21
}

; Function Attrs: nounwind uwtable
define dso_local i64 @GetIncrementalFileSize(i32 noundef %0) #0 {
  %2 = alloca i32, align 4
  %3 = alloca i64, align 8
  store i32 %0, ptr %2, align 4
  call void @llvm.lifetime.start.p0(i64 8, ptr %3) #12
  %4 = load i32, ptr %2, align 4
  %5 = call i64 @GetIncrementalHeaderSize(i32 noundef %4)
  store i64 %5, ptr %3, align 8
  %6 = load i32, ptr %2, align 4
  %7 = mul i32 8192, %6
  %8 = zext i32 %7 to i64
  %9 = load i64, ptr %3, align 8
  %10 = add i64 %9, %8
  store i64 %10, ptr %3, align 8
  %11 = load i64, ptr %3, align 8
  call void @llvm.lifetime.end.p0(i64 8, ptr %3) #12
  ret i64 %11
}