; Function Attrs: mustprogress nofree norecurse nosync nounwind willreturn memory(none) uwtable
define dso_local range(i64 12, 21474836488) i64 @GetIncrementalFileSize(i32 noundef %0) local_unnamed_addr #8 {
  %2 = zext i32 %0 to i64
  %3 = shl nuw nsw i64 %2, 2
  %4 = add nuw nsw i64 %3, 12
  %.not.i = icmp eq i32 %0, 0
  br i1 %.not.i, label %GetIncrementalHeaderSize.exit, label %5

5:                                                ; preds = %1
  %6 = and i64 %4, 8188
  %.not7.i = icmp eq i64 %6, 0
  br i1 %.not7.i, label %GetIncrementalHeaderSize.exit, label %7

7:                                                ; preds = %5
  %8 = add nuw nsw i64 %3, 8204
  %9 = sub nuw nsw i64 %8, %6
  br label %GetIncrementalHeaderSize.exit

GetIncrementalHeaderSize.exit:                    ; preds = %1, %5, %7
  %.0.i = phi i64 [ %9, %7 ], [ %4, %5 ], [ %4, %1 ]
  %10 = shl i32 %0, 13
  %11 = zext i32 %10 to i64
  %12 = add nuw nsw i64 %.0.i, %11
  ret i64 %12
}